; Function Attrs: mustprogress nounwind uwtable
define void @_ZN5osgeo4proj6common7MeasureD2Ev(ptr noundef nonnull align 8 dereferenceable(24) initializes((0, 8)) %0) unnamed_addr #3 align 2 personality ptr @__gxx_personality_v0 {
  store ptr getelementptr inbounds nuw inrange(-16, 16) (i8, ptr @_ZTVN5osgeo4proj6common7MeasureE, i64 16), ptr %0, align 8, !tbaa !3
  %2 = getelementptr inbounds nuw i8, ptr %0, i64 16
  %3 = load ptr, ptr %2, align 8, !tbaa !75
  %.not.i = icmp eq ptr %3, null
  br i1 %.not.i, label %_ZNSt10unique_ptrIN5osgeo4proj6common7Measure7PrivateESt14default_deleteIS4_EED2Ev.exit, label %_ZNKSt14default_deleteIN5osgeo4proj6common7Measure7PrivateEEclEPS4_.exit.i

_ZNKSt14default_deleteIN5osgeo4proj6common7Measure7PrivateEEclEPS4_.exit.i: ; preds = %1
  %4 = getelementptr inbounds nuw i8, ptr %3, i64 8
  tail call void @_ZN5osgeo4proj6common13UnitOfMeasureD1Ev(ptr noundef nonnull align 8 dereferenceable(24) %4) #40
  tail call void @_ZdlPvm(ptr noundef nonnull %3, i64 noundef 32) #39
  br label %_ZNSt10unique_ptrIN5osgeo4proj6common7Measure7PrivateESt14default_deleteIS4_EED2Ev.exit

_ZNSt10unique_ptrIN5osgeo4proj6common7Measure7PrivateESt14default_deleteIS4_EED2Ev.exit: ; preds = %1, %_ZNKSt14default_deleteIN5osgeo4proj6common7Measure7PrivateEEclEPS4_.exit.i
  store ptr null, ptr %2, align 8, !tbaa !75
  tail call void @_ZN5osgeo4proj4util10BaseObjectD2Ev(ptr noundef nonnull align 8 dereferenceable(16) %0) #40
  ret void
}